; Function Attrs: mustprogress uwtable
define noundef nonnull align 8 dereferenceable(48) ptr @_ZN4LIEF2PE9PogoEntryaSERKS1_(ptr noundef nonnull returned align 8 dereferenceable(48) %0, ptr noundef nonnull align 8 dereferenceable(48) %1) local_unnamed_addr #3 align 2 {
  %3 = tail call noundef nonnull align 8 dereferenceable(8) ptr @_ZN4LIEF6ObjectaSERKS0_(ptr noundef nonnull align 8 dereferenceable(8) %0, ptr noundef nonnull align 8 dereferenceable(8) %1)
  %4 = getelementptr inbounds i8, ptr %0, i64 8
  %5 = getelementptr inbounds i8, ptr %1, i64 8
  %6 = load i64, ptr %5, align 8
  store i64 %6, ptr %4, align 8
  %7 = getelementptr inbounds i8, ptr %0, i64 16
  %8 = getelementptr inbounds i8, ptr %1, i64 16
  %9 = tail call noundef nonnull align 8 dereferenceable(32) ptr @_ZNSt7__cxx1112basic_stringIcSt11char_traitsIcESaIcEEaSERKS4_(ptr noundef nonnull align 8 dereferenceable(32) %7, ptr noundef nonnull align 8 dereferenceable(32) %8)
  ret ptr %0
}